target datalayout = "e-m:e-p270:32:32-p271:32:32-p272:64:64-i64:64-i128:128-f80:128-n8:16:32:64-S128"
target triple = "x86_64-pc-linux-gnu"

%struct._xmlNode = type { ptr, i32, ptr, ptr, ptr, ptr, ptr, ptr, ptr, ptr, ptr, ptr, ptr, ptr, i16, i16 }

; Function Attrs: nounwind uwtable
define internal i32 @dom_canonicalize_node_parent_lookup_cb(ptr noundef %0, ptr noundef %1, ptr noundef %2) #0 {
  %4 = alloca i32, align 4
  %5 = alloca ptr, align 8
  %6 = alloca ptr, align 8
  %7 = alloca ptr, align 8
  %8 = alloca ptr, align 8
  store ptr %0, ptr %5, align 8
  store ptr %1, ptr %6, align 8
  store ptr %2, ptr %7, align 8
  %9 = load ptr, ptr %5, align 8
  store ptr %9, ptr %8, align 8
  %10 = load ptr, ptr %6, align 8
  %11 = load ptr, ptr %8, align 8
  %12 = icmp eq ptr %10, %11
  br i1 %12, label %13, label %14

13:                                               ; preds = %3
  store i32 1, ptr %4, align 4
  br label %29

14:                                               ; preds = %3
  %15 = load ptr, ptr %7, align 8
  store ptr %15, ptr %6, align 8
  br label %16

16:                                               ; preds = %24, %14
  %17 = load ptr, ptr %6, align 8
  %18 = icmp ne ptr %17, null
  br i1 %18, label %19, label %28

19:                                               ; preds = %16
  %20 = load ptr, ptr %6, align 8
  %21 = load ptr, ptr %8, align 8
  %22 = icmp eq ptr %20, %21
  br i1 %22, label %23, label %24

23:                                               ; preds = %19
  store i32 1, ptr %4, align 4
  br label %29

24:                                               ; preds = %19
  %25 = load ptr, ptr %6, align 8
  %26 = getelementptr inbounds %struct._xmlNode, ptr %25, i32 0, i32 5
  %27 = load ptr, ptr %26, align 8
  store ptr %27, ptr %6, align 8
  br label %16

28:                                               ; preds = %16
  store i32 0, ptr %4, align 4
  br label %29

29:                                               ; preds = %28, %23, %13
  %30 = load i32, ptr %4, align 4
  ret i32 %30
}