; Function Attrs: nofree norecurse nosync nounwind memory(read, inaccessiblemem: none) uwtable
define internal noundef i32 @dom_canonicalize_node_parent_lookup_cb(ptr noundef readnone %0, ptr noundef readnone %1, ptr noundef readonly %2) #7 {
  %4 = icmp eq ptr %1, %0
  br i1 %4, label %.loopexit, label %.preheader

.preheader:                                       ; preds = %3
  %.not10 = icmp eq ptr %2, null
  br i1 %.not10, label %.loopexit, label %.lr.ph

.lr.ph:                                           ; preds = %.preheader, %6
  %.0811 = phi ptr [ %8, %6 ], [ %2, %.preheader ]
  %5 = icmp eq ptr %.0811, %0
  br i1 %5, label %.loopexit, label %6

6:                                                ; preds = %.lr.ph
  %7 = getelementptr inbounds i8, ptr %.0811, i64 40
  %8 = load ptr, ptr %7, align 8
  %.not = icmp eq ptr %8, null
  br i1 %.not, label %.loopexit, label %.lr.ph

.loopexit:                                        ; preds = %.lr.ph, %6, %.preheader, %3
  %.0 = phi i32 [ 1, %3 ], [ 0, %.preheader ], [ 1, %.lr.ph ], [ 0, %6 ]
  ret i32 %.0
}